target datalayout = "e-m:e-p270:32:32-p271:32:32-p272:64:64-i64:64-i128:128-f80:128-n8:16:32:64-S128"
target triple = "x86_64-pc-linux-gnu"

%struct.ssl_st = type { i32, i16, i16, ptr, ptr, ptr, ptr, ptr, i32, i32, ptr, ptr, i32, i32, ptr, ptr, ptr, ptr, ptr, ptr, ptr, ptr, i32, i32, [32 x i8], ptr, ptr, ptr, ptr, ptr, ptr, ptr, i64, %struct.crypto_ex_data_st, ptr, i32, i32, i32, i32, i16, ptr, i32, i64, ptr, ptr, ptr, ptr, ptr, ptr, i32, i32, ptr, ptr, i8, i8, i32 }
%struct.crypto_ex_data_st = type { ptr }
%struct.ssl3_state_st = type { [8 x i8], [8 x i8], [32 x i8], [32 x i8], i8, i8, %struct.ssl3_buffer_st, %struct.ssl3_buffer_st, %struct.ssl3_record_st, i8, i32, i32, i32, i32, ptr, ptr, %struct.env_md_ctx_st, %struct.env_md_ctx_st, i8, i32, [2 x i8], i32, i8, i8, ptr, ptr, ptr, %struct.anon, [64 x i8], i8, [64 x i8], i8, i32, i32, ptr, i64, ptr, i64, i8, [64 x i8] }
%struct.ssl3_buffer_st = type { ptr, i16, i16, i16 }
%struct.ssl3_record_st = type { i8, i16, ptr }
%struct.env_md_ctx_st = type { ptr, ptr, ptr, ptr }
%struct.anon = type { [64 x i8], i32, [64 x i8], i32, i64, i32, ptr, i32, i32, %union.anon, %union.anon.0, i8, i32, ptr, ptr, i64, ptr, i8, i8, i8, i8, i32, i8, ptr, i64, i8, ptr, i8, i8, i8, %struct.ssl_ecdh_ctx_st, ptr, i16 }
%union.anon = type { i32 }
%union.anon.0 = type { i16 }
%struct.ssl_ecdh_ctx_st = type { ptr, ptr }
%struct.ssl_protocol_method_st = type { i8, ptr, ptr, ptr, ptr, ptr, ptr, ptr, ptr, ptr, ptr, ptr, i32, ptr, ptr }

@.str = private unnamed_addr constant [120 x i8] c"generated/home/dtcxzyw/WorkSpace/Projects/compilers/llvm-opt-benchmark/bench/libquic/libquic/boringssl/ssl/ssl_buffer.c\00", align 1

; Function Attrs: nounwind uwtable
define internal i32 @setup_buffer(ptr noundef %0, i64 noundef %1, i64 noundef %2) #0 {
  %4 = alloca i32, align 4
  %5 = alloca ptr, align 8
  %6 = alloca i64, align 8
  %7 = alloca i64, align 8
  store ptr %0, ptr %5, align 8, !tbaa !59
  store i64 %1, ptr %6, align 8, !tbaa !53
  store i64 %2, ptr %7, align 8, !tbaa !53
  %8 = load ptr, ptr %5, align 8, !tbaa !59
  %9 = getelementptr inbounds nuw %struct.ssl3_buffer_st, ptr %8, i32 0, i32 0
  %10 = load ptr, ptr %9, align 8, !tbaa !61
  %11 = icmp ne ptr %10, null
  br i1 %11, label %15, label %12

12:                                               ; preds = %3
  %13 = load i64, ptr %7, align 8, !tbaa !53
  %14 = icmp ugt i64 %13, 65535
  br i1 %14, label %15, label %16

15:                                               ; preds = %12, %3
  call void @ERR_put_error(i32 noundef 16, i32 noundef 0, i32 noundef 68, ptr noundef @.str, i32 noundef 40)
  store i32 0, ptr %4, align 4
  br label %46

16:                                               ; preds = %12
  %17 = load i64, ptr %7, align 8, !tbaa !53
  %18 = add i64 %17, 8
  %19 = sub i64 %18, 1
  %20 = call noalias ptr @malloc(i64 noundef %19) #9
  %21 = load ptr, ptr %5, align 8, !tbaa !59
  %22 = getelementptr inbounds nuw %struct.ssl3_buffer_st, ptr %21, i32 0, i32 0
  store ptr %20, ptr %22, align 8, !tbaa !61
  %23 = load ptr, ptr %5, align 8, !tbaa !59
  %24 = getelementptr inbounds nuw %struct.ssl3_buffer_st, ptr %23, i32 0, i32 0
  %25 = load ptr, ptr %24, align 8, !tbaa !61
  %26 = icmp eq ptr %25, null
  br i1 %26, label %27, label %28

27:                                               ; preds = %16
  call void @ERR_put_error(i32 noundef 16, i32 noundef 0, i32 noundef 65, ptr noundef @.str, i32 noundef 47)
  store i32 0, ptr %4, align 4
  br label %46

28:                                               ; preds = %16
  %29 = load i64, ptr %6, align 8, !tbaa !53
  %30 = sub i64 0, %29
  %31 = load ptr, ptr %5, align 8, !tbaa !59
  %32 = getelementptr inbounds nuw %struct.ssl3_buffer_st, ptr %31, i32 0, i32 0
  %33 = load ptr, ptr %32, align 8, !tbaa !61
  %34 = ptrtoint ptr %33 to i64
  %35 = sub i64 %30, %34
  %36 = and i64 %35, 7
  %37 = trunc i64 %36 to i16
  %38 = load ptr, ptr %5, align 8, !tbaa !59
  %39 = getelementptr inbounds nuw %struct.ssl3_buffer_st, ptr %38, i32 0, i32 1
  store i16 %37, ptr %39, align 8, !tbaa !63
  %40 = load ptr, ptr %5, align 8, !tbaa !59
  %41 = getelementptr inbounds nuw %struct.ssl3_buffer_st, ptr %40, i32 0, i32 2
  store i16 0, ptr %41, align 2, !tbaa !62
  %42 = load i64, ptr %7, align 8, !tbaa !53
  %43 = trunc i64 %42 to i16
  %44 = load ptr, ptr %5, align 8, !tbaa !59
  %45 = getelementptr inbounds nuw %struct.ssl3_buffer_st, ptr %44, i32 0, i32 3
  store i16 %43, ptr %45, align 4, !tbaa !64
  store i32 1, ptr %4, align 4
  br label %46

46:                                               ; preds = %28, %27, %15
  %47 = load i32, ptr %4, align 4
  ret i32 %47
}

; Function Attrs: nounwind uwtable
define hidden i32 @ssl_write_buffer_init(ptr noundef %0, ptr noundef %1, i64 noundef %2) #0 {
  %4 = alloca i32, align 4
  %5 = alloca ptr, align 8
  %6 = alloca ptr, align 8
  %7 = alloca i64, align 8
  %8 = alloca ptr, align 8
  %9 = alloca i32, align 4
  %10 = alloca i64, align 8
  %11 = alloca i64, align 8
  store ptr %0, ptr %5, align 8, !tbaa !6
  store ptr %1, ptr %6, align 8, !tbaa !69
  store i64 %2, ptr %7, align 8, !tbaa !53
  call void @llvm.lifetime.start.p0(i64 8, ptr %8) #7
  %12 = load ptr, ptr %5, align 8, !tbaa !6
  %13 = getelementptr inbounds nuw %struct.ssl_st, ptr %12, i32 0, i32 14
  %14 = load ptr, ptr %13, align 8, !tbaa !11
  %15 = getelementptr inbounds nuw %struct.ssl3_state_st, ptr %14, i32 0, i32 7
  store ptr %15, ptr %8, align 8, !tbaa !59
  %16 = load ptr, ptr %8, align 8, !tbaa !59
  %17 = getelementptr inbounds nuw %struct.ssl3_buffer_st, ptr %16, i32 0, i32 0
  %18 = load ptr, ptr %17, align 8, !tbaa !61
  %19 = icmp ne ptr %18, null
  br i1 %19, label %20, label %21

20:                                               ; preds = %3
  call void @ERR_put_error(i32 noundef 16, i32 noundef 0, i32 noundef 68, ptr noundef @.str, i32 noundef 226)
  store i32 0, ptr %4, align 4
  store i32 1, ptr %9, align 4
  br label %70

21:                                               ; preds = %3
  call void @llvm.lifetime.start.p0(i64 8, ptr %10) #7
  %22 = load ptr, ptr %5, align 8, !tbaa !6
  %23 = call i64 @ssl_seal_prefix_len(ptr noundef %22)
  store i64 %23, ptr %10, align 8, !tbaa !53
  call void @llvm.lifetime.start.p0(i64 8, ptr %11) #7
  store i64 16464, ptr %11, align 8, !tbaa !53
  %24 = load ptr, ptr %5, align 8, !tbaa !6
  %25 = getelementptr inbounds nuw %struct.ssl_st, ptr %24, i32 0, i32 3
  %26 = load ptr, ptr %25, align 8, !tbaa !55
  %27 = getelementptr inbounds nuw %struct.ssl_protocol_method_st, ptr %26, i32 0, i32 0
  %28 = load i8, ptr %27, align 8, !tbaa !56
  %29 = icmp ne i8 %28, 0
  br i1 %29, label %30, label %33

30:                                               ; preds = %21
  %31 = load i64, ptr %11, align 8, !tbaa !53
  %32 = add i64 %31, 13
  store i64 %32, ptr %11, align 8, !tbaa !53
  br label %46

33:                                               ; preds = %21
  %34 = load i64, ptr %11, align 8, !tbaa !53
  %35 = add i64 %34, 5
  store i64 %35, ptr %11, align 8, !tbaa !53
  %36 = load ptr, ptr %5, align 8, !tbaa !6
  %37 = getelementptr inbounds nuw %struct.ssl_st, ptr %36, i32 0, i32 36
  %38 = load i32, ptr %37, align 4, !tbaa !71
  %39 = zext i32 %38 to i64
  %40 = and i64 %39, 256
  %41 = icmp ne i64 %40, 0
  br i1 %41, label %42, label %45

42:                                               ; preds = %33
  %43 = load i64, ptr %11, align 8, !tbaa !53
  %44 = add i64 %43, 85
  store i64 %44, ptr %11, align 8, !tbaa !53
  br label %45

45:                                               ; preds = %42, %33
  br label %46

46:                                               ; preds = %45, %30
  %47 = load i64, ptr %7, align 8, !tbaa !53
  %48 = load i64, ptr %11, align 8, !tbaa !53
  %49 = icmp ugt i64 %47, %48
  br i1 %49, label %50, label %51

50:                                               ; preds = %46
  call void @ERR_put_error(i32 noundef 16, i32 noundef 0, i32 noundef 121, ptr noundef @.str, i32 noundef 245)
  store i32 0, ptr %4, align 4
  store i32 1, ptr %9, align 4
  br label %69

51:                                               ; preds = %46
  %52 = load ptr, ptr %8, align 8, !tbaa !59
  %53 = load i64, ptr %10, align 8, !tbaa !53
  %54 = load i64, ptr %11, align 8, !tbaa !53
  %55 = call i32 @setup_buffer(ptr noundef %52, i64 noundef %53, i64 noundef %54)
  %56 = icmp ne i32 %55, 0
  br i1 %56, label %58, label %57

57:                                               ; preds = %51
  store i32 0, ptr %4, align 4
  store i32 1, ptr %9, align 4
  br label %69

58:                                               ; preds = %51
  %59 = load ptr, ptr %8, align 8, !tbaa !59
  %60 = getelementptr inbounds nuw %struct.ssl3_buffer_st, ptr %59, i32 0, i32 0
  %61 = load ptr, ptr %60, align 8, !tbaa !61
  %62 = load ptr, ptr %8, align 8, !tbaa !59
  %63 = getelementptr inbounds nuw %struct.ssl3_buffer_st, ptr %62, i32 0, i32 1
  %64 = load i16, ptr %63, align 8, !tbaa !63
  %65 = zext i16 %64 to i32
  %66 = sext i32 %65 to i64
  %67 = getelementptr inbounds i8, ptr %61, i64 %66
  %68 = load ptr, ptr %6, align 8, !tbaa !69
  store ptr %67, ptr %68, align 8, !tbaa !72
  store i32 1, ptr %4, align 4
  store i32 1, ptr %9, align 4
  br label %69

69:                                               ; preds = %58, %57, %50
  call void @llvm.lifetime.end.p0(i64 8, ptr %11) #7
  call void @llvm.lifetime.end.p0(i64 8, ptr %10) #7
  br label %70

70:                                               ; preds = %69, %20
  call void @llvm.lifetime.end.p0(i64 8, ptr %8) #7
  %71 = load i32, ptr %4, align 4
  ret i32 %71
}