; Function Attrs: nounwind uwtable
define hidden range(i32 0, 2) i32 @ssl_write_buffer_init(ptr noundef %0, ptr noundef writeonly captures(none) %1, i64 noundef %2) local_unnamed_addr #1 {
  %4 = getelementptr inbounds nuw i8, ptr %0, i64 80
  %5 = load ptr, ptr %4, align 8, !tbaa !6
  %6 = getelementptr inbounds nuw i8, ptr %5, i64 104
  %7 = load ptr, ptr %6, align 8, !tbaa !51
  %.not = icmp eq ptr %7, null
  br i1 %.not, label %9, label %8

8:                                                ; preds = %3
  tail call void @ERR_put_error(i32 noundef 16, i32 noundef 0, i32 noundef 68, ptr noundef nonnull @.str, i32 noundef 226) #9
  br label %setup_buffer.exit.thread

9:                                                ; preds = %3
  %10 = tail call i64 @ssl_seal_prefix_len(ptr noundef nonnull %0) #9
  %11 = getelementptr inbounds nuw i8, ptr %0, i64 8
  %12 = load ptr, ptr %11, align 8, !tbaa !52
  %13 = load i8, ptr %12, align 8, !tbaa !53
  %.not17 = icmp eq i8 %13, 0
  br i1 %.not17, label %14, label %18

14:                                               ; preds = %9
  %15 = getelementptr inbounds nuw i8, ptr %0, i64 268
  %16 = load i32, ptr %15, align 4, !tbaa !63
  %17 = and i32 %16, 256
  %.not18 = icmp eq i32 %17, 0
  %spec.select = select i1 %.not18, i64 16469, i64 16554
  br label %18

18:                                               ; preds = %14, %9
  %.0 = phi i64 [ 16477, %9 ], [ %spec.select, %14 ]
  %19 = icmp ugt i64 %2, %.0
  br i1 %19, label %20, label %21

20:                                               ; preds = %18
  tail call void @ERR_put_error(i32 noundef 16, i32 noundef 0, i32 noundef 121, ptr noundef nonnull @.str, i32 noundef 245) #9
  br label %setup_buffer.exit.thread

21:                                               ; preds = %18
  %22 = load ptr, ptr %6, align 8, !tbaa !51
  %.not.i = icmp eq ptr %22, null
  br i1 %.not.i, label %24, label %23

23:                                               ; preds = %21
  tail call void @ERR_put_error(i32 noundef 16, i32 noundef 0, i32 noundef 68, ptr noundef nonnull @.str, i32 noundef 40) #9
  br label %setup_buffer.exit.thread

24:                                               ; preds = %21
  %25 = add nuw nsw i64 %.0, 7
  %26 = tail call noalias ptr @malloc(i64 noundef %25) #10
  store ptr %26, ptr %6, align 8, !tbaa !51
  %27 = icmp eq ptr %26, null
  br i1 %27, label %28, label %29

28:                                               ; preds = %24
  tail call void @ERR_put_error(i32 noundef 16, i32 noundef 0, i32 noundef 65, ptr noundef nonnull @.str, i32 noundef 47) #9
  br label %setup_buffer.exit.thread

29:                                               ; preds = %24
  %30 = ptrtoint ptr %26 to i64
  %31 = add i64 %10, %30
  %32 = trunc i64 %31 to i16
  %33 = sub i16 0, %32
  %34 = and i16 %33, 7
  %35 = getelementptr inbounds nuw i8, ptr %5, i64 112
  store i16 %34, ptr %35, align 8, !tbaa !55
  %36 = getelementptr inbounds nuw i8, ptr %5, i64 114
  store i16 0, ptr %36, align 2, !tbaa !56
  %37 = trunc nuw nsw i64 %.0 to i16
  %38 = getelementptr inbounds nuw i8, ptr %5, i64 116
  store i16 %37, ptr %38, align 4, !tbaa !57
  %39 = zext nneg i16 %34 to i64
  %40 = getelementptr inbounds nuw i8, ptr %26, i64 %39
  store ptr %40, ptr %1, align 8, !tbaa !64
  br label %setup_buffer.exit.thread

setup_buffer.exit.thread:                         ; preds = %28, %23, %20, %29, %8
  %.016 = phi i32 [ 0, %8 ], [ 0, %20 ], [ 1, %29 ], [ 0, %23 ], [ 0, %28 ]
  ret i32 %.016
}